target datalayout = "e-m:e-p270:32:32-p271:32:32-p272:64:64-i64:64-i128:128-f80:128-n8:16:32:64-S128"
target triple = "x86_64-pc-linux-gnu"

%struct.Aig_CMan_t_ = type { i32, i32, i32, i32, i32, i32, ptr, i32, i32, [0 x i8] }

; Function Attrs: nounwind uwtable
define i32 @Aig_CManRestoreNum(ptr noundef %0) #0 {
  %2 = alloca ptr, align 8
  %3 = alloca i32, align 4
  %4 = alloca i32, align 4
  %5 = alloca i32, align 4
  store ptr %0, ptr %2, align 8, !tbaa !53
  call void @llvm.lifetime.start.p0(i64 4, ptr %3) #9
  call void @llvm.lifetime.start.p0(i64 4, ptr %4) #9
  call void @llvm.lifetime.start.p0(i64 4, ptr %5) #9
  store i32 0, ptr %5, align 4, !tbaa !10
  store i32 0, ptr %4, align 4, !tbaa !10
  br label %6

6:                                                ; preds = %23, %1
  %7 = load ptr, ptr %2, align 8, !tbaa !53
  %8 = getelementptr inbounds nuw %struct.Aig_CMan_t_, ptr %7, i32 0, i32 6
  %9 = load ptr, ptr %8, align 8, !tbaa !62
  %10 = getelementptr inbounds nuw i8, ptr %9, i32 1
  store ptr %10, ptr %8, align 8, !tbaa !62
  %11 = load i8, ptr %9, align 1, !tbaa !63
  %12 = zext i8 %11 to i32
  store i32 %12, ptr %3, align 4, !tbaa !10
  %13 = and i32 %12, 128
  %14 = icmp ne i32 %13, 0
  br i1 %14, label %15, label %26

15:                                               ; preds = %6
  %16 = load i32, ptr %3, align 4, !tbaa !10
  %17 = and i32 %16, 127
  %18 = load i32, ptr %4, align 4, !tbaa !10
  %19 = mul nsw i32 7, %18
  %20 = shl i32 %17, %19
  %21 = load i32, ptr %5, align 4, !tbaa !10
  %22 = or i32 %21, %20
  store i32 %22, ptr %5, align 4, !tbaa !10
  br label %23

23:                                               ; preds = %15
  %24 = load i32, ptr %4, align 4, !tbaa !10
  %25 = add nsw i32 %24, 1
  store i32 %25, ptr %4, align 4, !tbaa !10
  br label %6, !llvm.loop !65

26:                                               ; preds = %6
  %27 = load i32, ptr %5, align 4, !tbaa !10
  %28 = load i32, ptr %3, align 4, !tbaa !10
  %29 = load i32, ptr %4, align 4, !tbaa !10
  %30 = mul nsw i32 7, %29
  %31 = shl i32 %28, %30
  %32 = or i32 %27, %31
  call void @llvm.lifetime.end.p0(i64 4, ptr %5) #9
  call void @llvm.lifetime.end.p0(i64 4, ptr %4) #9
  call void @llvm.lifetime.end.p0(i64 4, ptr %3) #9
  ret i32 %32
}