; Function Attrs: nofree norecurse nosync nounwind memory(read, argmem: readwrite, inaccessiblemem: none) uwtable
define i32 @Aig_CManRestoreNum(ptr noundef captures(none) %0) local_unnamed_addr #14 {
  %2 = getelementptr inbounds nuw i8, ptr %0, i64 24
  %.promoted = load ptr, ptr %2, align 8, !tbaa !54
  %3 = getelementptr inbounds nuw i8, ptr %.promoted, i64 1
  store ptr %3, ptr %2, align 8, !tbaa !54
  %4 = load i8, ptr %.promoted, align 1, !tbaa !25
  %5 = zext i8 %4 to i32
  %.not8 = icmp sgt i8 %4, -1
  br i1 %.not8, label %._crit_edge, label %.lr.ph

.lr.ph:                                           ; preds = %1, %.lr.ph
  %6 = phi i32 [ %15, %.lr.ph ], [ %5, %1 ]
  %7 = phi ptr [ %13, %.lr.ph ], [ %3, %1 ]
  %.010 = phi i32 [ %11, %.lr.ph ], [ 0, %1 ]
  %.079 = phi i32 [ %12, %.lr.ph ], [ 0, %1 ]
  %8 = and i32 %6, 127
  %9 = mul nuw nsw i32 %.079, 7
  %10 = shl i32 %8, %9
  %11 = or i32 %10, %.010
  %12 = add nuw nsw i32 %.079, 1
  %13 = getelementptr inbounds nuw i8, ptr %7, i64 1
  store ptr %13, ptr %2, align 8, !tbaa !54
  %14 = load i8, ptr %7, align 1, !tbaa !25
  %15 = zext i8 %14 to i32
  %.not = icmp sgt i8 %14, -1
  br i1 %.not, label %._crit_edge.loopexit, label %.lr.ph, !llvm.loop !56

._crit_edge.loopexit:                             ; preds = %.lr.ph
  %16 = mul nuw nsw i32 %12, 7
  br label %._crit_edge

._crit_edge:                                      ; preds = %._crit_edge.loopexit, %1
  %.07.lcssa = phi i32 [ 0, %1 ], [ %16, %._crit_edge.loopexit ]
  %.0.lcssa = phi i32 [ 0, %1 ], [ %11, %._crit_edge.loopexit ]
  %.lcssa = phi i32 [ %5, %1 ], [ %15, %._crit_edge.loopexit ]
  %17 = shl i32 %.lcssa, %.07.lcssa
  %18 = or i32 %17, %.0.lcssa
  ret i32 %18
}